target datalayout = "e-m:e-p270:32:32-p271:32:32-p272:64:64-i64:64-i128:128-f80:128-n8:16:32:64-S128"
target triple = "x86_64-pc-linux-gnu"

%struct.PlatformTarget = type { ptr, i32, ptr, ptr, i32, i32, i32, i32, i32, i32, i32, [7 x %struct.AlignData], [7 x %struct.AlignData], [7 x %struct.AlignData], i32, i16, %union.anon.88, i8, i8, i8, i8, i8, i8, i8, i8, i8, i8, %struct.AlignData, i32, i32, i32, i32, i32, i32, i32, i32, i32, i32, i32, i32, i32, i32, i32, i32, ptr }
%union.anon.88 = type { %struct.anon.90 }
%struct.anon.90 = type { %struct.X86Features, i32, i32 }
%struct.X86Features = type { [2 x i64], ptr }
%struct.AlignData = type { i32, i32 }
%struct.Type_ = type { i32, ptr, ptr, ptr, %union.anon.85, ptr, ptr, %union.anon.87 }
%union.anon.85 = type { ptr }
%union.anon.87 = type { %struct.TypeFunction }
%struct.TypeFunction = type { ptr, ptr, ptr }

@platform_target = external global %struct.PlatformTarget, align 8
@.str.4 = private unnamed_addr constant [36 x i8] c"FATAL ERROR %s -> in %s @ in %s:%d \00", align 1
@.str.5 = private unnamed_addr constant [22 x i8] c"Should be unreachable\00", align 1
@__func__.type_is_homogenous_base_type = private unnamed_addr constant [29 x i8] c"type_is_homogenous_base_type\00", align 1
@.str.6 = private unnamed_addr constant [116 x i8] c"generated/home/dtcxzyw/WorkSpace/Projects/compilers/llvm-opt-benchmark/bench/c3c/c3c/src/compiler/codegen_general.c\00", align 1

; Function Attrs: nounwind uwtable
define dso_local zeroext i1 @type_is_homogenous_base_type(ptr noundef %0) #0 {
  %2 = alloca i1, align 1
  %3 = alloca ptr, align 8
  store ptr %0, ptr %3, align 8
  %4 = load ptr, ptr %3, align 8
  %5 = getelementptr inbounds %struct.Type_, ptr %4, i32 0, i32 1
  %6 = load ptr, ptr %5, align 8
  store ptr %6, ptr %3, align 8
  %7 = load i32, ptr getelementptr inbounds (%struct.PlatformTarget, ptr @platform_target, i32 0, i32 10), align 8
  switch i32 %7, label %62 [
    i32 8, label %8
    i32 1, label %27
    i32 2, label %27
    i32 3, label %27
    i32 4, label %38
    i32 6, label %49
    i32 0, label %61
    i32 5, label %61
    i32 7, label %61
    i32 9, label %61
  ]

8:                                                ; preds = %1
  %9 = load ptr, ptr %3, align 8
  %10 = getelementptr inbounds %struct.Type_, ptr %9, i32 0, i32 0
  %11 = load i32, ptr %10, align 8
  switch i32 %11, label %26 [
    i32 17, label %12
    i32 15, label %17
    i32 16, label %17
    i32 37, label %22
  ]

12:                                               ; preds = %8
  %13 = load i8, ptr getelementptr inbounds (%struct.PlatformTarget, ptr @platform_target, i32 0, i32 20), align 1
  %14 = trunc i8 %13 to i1
  br i1 %14, label %16, label %15

15:                                               ; preds = %12
  store i1 false, ptr %2, align 1
  br label %64

16:                                               ; preds = %12
  br label %17

17:                                               ; preds = %16, %8, %8
  %18 = load i8, ptr getelementptr inbounds (%struct.PlatformTarget, ptr @platform_target, i32 0, i32 16), align 8
  %19 = and i8 %18, 1
  %20 = trunc i8 %19 to i1
  %21 = xor i1 %20, true
  store i1 %21, ptr %2, align 1
  br label %64

22:                                               ; preds = %8
  %23 = load ptr, ptr %3, align 8
  %24 = call i32 @type_size(ptr noundef %23)
  %25 = icmp eq i32 %24, 16
  store i1 %25, ptr %2, align 1
  br label %64

26:                                               ; preds = %8
  store i1 false, ptr %2, align 1
  br label %64

27:                                               ; preds = %1, %1, %1
  %28 = load ptr, ptr %3, align 8
  %29 = getelementptr inbounds %struct.Type_, ptr %28, i32 0, i32 0
  %30 = load i32, ptr %29, align 8
  switch i32 %30, label %37 [
    i32 16, label %31
    i32 15, label %31
    i32 37, label %32
  ]

31:                                               ; preds = %27, %27
  store i1 true, ptr %2, align 1
  br label %64

32:                                               ; preds = %27
  %33 = load ptr, ptr %3, align 8
  %34 = call i32 @type_size(ptr noundef %33)
  switch i32 %34, label %36 [
    i32 16, label %35
    i32 32, label %35
    i32 64, label %35
  ]

35:                                               ; preds = %32, %32, %32
  store i1 true, ptr %2, align 1
  br label %64

36:                                               ; preds = %32
  store i1 false, ptr %2, align 1
  br label %64

37:                                               ; preds = %27
  store i1 false, ptr %2, align 1
  br label %64

38:                                               ; preds = %1
  %39 = load ptr, ptr %3, align 8
  %40 = getelementptr inbounds %struct.Type_, ptr %39, i32 0, i32 0
  %41 = load i32, ptr %40, align 8
  switch i32 %41, label %48 [
    i32 14, label %42
    i32 13, label %42
    i32 15, label %42
    i32 16, label %42
    i32 17, label %42
    i32 37, label %43
  ]

42:                                               ; preds = %38, %38, %38, %38, %38
  store i1 true, ptr %2, align 1
  br label %64

43:                                               ; preds = %38
  %44 = load ptr, ptr %3, align 8
  %45 = call i32 @type_size(ptr noundef %44)
  switch i32 %45, label %47 [
    i32 8, label %46
    i32 16, label %46
  ]

46:                                               ; preds = %43, %43
  store i1 true, ptr %2, align 1
  br label %64

47:                                               ; preds = %43
  store i1 false, ptr %2, align 1
  br label %64

48:                                               ; preds = %38
  store i1 false, ptr %2, align 1
  br label %64

49:                                               ; preds = %1
  %50 = load ptr, ptr %3, align 8
  %51 = getelementptr inbounds %struct.Type_, ptr %50, i32 0, i32 0
  %52 = load i32, ptr %51, align 8
  switch i32 %52, label %60 [
    i32 15, label %53
    i32 16, label %53
    i32 17, label %53
    i32 37, label %54
  ]

53:                                               ; preds = %49, %49, %49
  store i1 true, ptr %2, align 1
  br label %64

54:                                               ; preds = %49
  %55 = load ptr, ptr %3, align 8
  %56 = call i32 @type_size(ptr noundef %55)
  switch i32 %56, label %58 [
    i32 8, label %57
    i32 16, label %57
  ]

57:                                               ; preds = %54, %54
  store i1 true, ptr %2, align 1
  br label %64

58:                                               ; preds = %54
  br label %59

59:                                               ; preds = %58
  br label %60

60:                                               ; preds = %59, %49
  store i1 false, ptr %2, align 1
  br label %64

61:                                               ; preds = %1, %1, %1, %1
  store i1 false, ptr %2, align 1
  br label %64

62:                                               ; preds = %1
  br label %63

63:                                               ; preds = %62
  call void (ptr, ...) @error_exit(ptr noundef @.str.4, ptr noundef @.str.5, ptr noundef @__func__.type_is_homogenous_base_type, ptr noundef @.str.6, i32 noundef 131) #3
  unreachable

64:                                               ; preds = %61, %60, %57, %53, %48, %47, %46, %42, %37, %36, %35, %31, %26, %22, %17, %15
  %65 = load i1, ptr %2, align 1
  ret i1 %65
}